; Function Attrs: mustprogress nounwind uwtable
define hidden noundef i64 @_ZN10PSYoungGen16limit_gen_shrinkEm(ptr nocapture noundef nonnull readonly align 8 dereferenceable(104) %0, i64 noundef %1) local_unnamed_addr #0 align 2 {
  %3 = getelementptr inbounds i8, ptr %0, i64 24
  %4 = load ptr, ptr %3, align 8
  %5 = getelementptr inbounds i8, ptr %4, i64 40
  %6 = load ptr, ptr %5, align 8
  %7 = getelementptr inbounds i8, ptr %4, i64 32
  %8 = load ptr, ptr %7, align 8
  %9 = getelementptr inbounds i8, ptr %0, i64 56
  %10 = load i64, ptr %9, align 8
  %11 = getelementptr inbounds i8, ptr %0, i64 40
  %12 = load ptr, ptr %11, align 8
  %13 = getelementptr inbounds i8, ptr %12, i64 48
  %14 = load ptr, ptr %13, align 8
  %15 = getelementptr inbounds i8, ptr %0, i64 48
  %16 = load ptr, ptr %15, align 8
  %17 = getelementptr inbounds i8, ptr %16, i64 48
  %18 = load ptr, ptr %17, align 8
  %19 = icmp ugt ptr %14, %18
  %spec.select.i = select i1 %19, ptr %12, ptr %16
  %20 = getelementptr inbounds i8, ptr %spec.select.i, i64 48
  %21 = load ptr, ptr %20, align 8
  %22 = load ptr, ptr %spec.select.i, align 8
  %23 = getelementptr inbounds i8, ptr %22, i64 80
  %24 = load ptr, ptr %23, align 8
  %25 = tail call noundef i64 %24(ptr noundef nonnull align 8 dereferenceable(56) %spec.select.i) #9
  %26 = icmp eq i64 %25, 0
  %27 = load ptr, ptr %20, align 8
  %28 = ptrtoint ptr %27 to i64
  br i1 %26, label %29, label %37

29:                                               ; preds = %2
  %30 = getelementptr inbounds i8, ptr %spec.select.i, i64 32
  %31 = load ptr, ptr %30, align 8
  %32 = ptrtoint ptr %31 to i64
  %33 = sub i64 %28, %32
  %34 = and i64 %33, -8
  %35 = load i64, ptr @SpaceAlignment, align 8
  %36 = sub i64 %34, %35
  br label %_ZN10PSYoungGen17available_to_liveEv.exit

37:                                               ; preds = %2
  %38 = getelementptr inbounds i8, ptr %spec.select.i, i64 40
  %39 = load volatile ptr, ptr %38, align 8
  %40 = ptrtoint ptr %39 to i64
  %41 = sub i64 %28, %40
  br label %_ZN10PSYoungGen17available_to_liveEv.exit

_ZN10PSYoungGen17available_to_liveEv.exit:        ; preds = %29, %37
  %.0.i = phi i64 [ %36, %29 ], [ %41, %37 ]
  %42 = ptrtoint ptr %6 to i64
  %43 = ptrtoint ptr %8 to i64
  %44 = add i64 %10, %43
  %45 = sub i64 %42, %44
  %46 = ptrtoint ptr %21 to i64
  %47 = sub i64 %42, %46
  %48 = add i64 %47, %.0.i
  %49 = load i64, ptr @GenAlignment, align 8
  %50 = sub i64 0, %49
  %51 = and i64 %48, %50
  %52 = tail call noundef i64 @llvm.umin.i64(i64 %1, i64 %45)
  %53 = tail call noundef i64 @llvm.umin.i64(i64 %52, i64 %51)
  %54 = load ptr, ptr %3, align 8
  %55 = getelementptr inbounds i8, ptr %54, i64 8
  %56 = load i64, ptr %55, align 8
  %57 = sub i64 0, %56
  %58 = and i64 %53, %57
  ret i64 %58
}